target datalayout = "e-m:e-p270:32:32-p271:32:32-p272:64:64-i64:64-i128:128-f80:128-n8:16:32:64-S128"
target triple = "x86_64-pc-linux-gnu"

%"struct.net::HpackHuffmanTable::DecodeEntry" = type { i8, i8, i16 }
%"struct.net::HpackHuffmanTable::DecodeTable" = type { i8, i8, i64 }
%"class.net::HpackHuffmanTable" = type <{ %"class.std::vector", %"class.std::vector.0", %"class.std::vector.5", %"class.std::vector.10", i8, i8, i16, [4 x i8] }>
%"class.std::vector" = type { %"struct.std::_Vector_base" }
%"struct.std::_Vector_base" = type { %"struct.std::_Vector_base<net::HpackHuffmanTable::DecodeTable, std::allocator<net::HpackHuffmanTable::DecodeTable>>::_Vector_impl" }
%"struct.std::_Vector_base<net::HpackHuffmanTable::DecodeTable, std::allocator<net::HpackHuffmanTable::DecodeTable>>::_Vector_impl" = type { %"struct.std::_Vector_base<net::HpackHuffmanTable::DecodeTable, std::allocator<net::HpackHuffmanTable::DecodeTable>>::_Vector_impl_data" }
%"struct.std::_Vector_base<net::HpackHuffmanTable::DecodeTable, std::allocator<net::HpackHuffmanTable::DecodeTable>>::_Vector_impl_data" = type { ptr, ptr, ptr }
%"class.std::vector.0" = type { %"struct.std::_Vector_base.1" }
%"struct.std::_Vector_base.1" = type { %"struct.std::_Vector_base<net::HpackHuffmanTable::DecodeEntry, std::allocator<net::HpackHuffmanTable::DecodeEntry>>::_Vector_impl" }
%"struct.std::_Vector_base<net::HpackHuffmanTable::DecodeEntry, std::allocator<net::HpackHuffmanTable::DecodeEntry>>::_Vector_impl" = type { %"struct.std::_Vector_base<net::HpackHuffmanTable::DecodeEntry, std::allocator<net::HpackHuffmanTable::DecodeEntry>>::_Vector_impl_data" }
%"struct.std::_Vector_base<net::HpackHuffmanTable::DecodeEntry, std::allocator<net::HpackHuffmanTable::DecodeEntry>>::_Vector_impl_data" = type { ptr, ptr, ptr }
%"class.std::vector.5" = type { %"struct.std::_Vector_base.6" }
%"struct.std::_Vector_base.6" = type { %"struct.std::_Vector_base<unsigned int, std::allocator<unsigned int>>::_Vector_impl" }
%"struct.std::_Vector_base<unsigned int, std::allocator<unsigned int>>::_Vector_impl" = type { %"struct.std::_Vector_base<unsigned int, std::allocator<unsigned int>>::_Vector_impl_data" }
%"struct.std::_Vector_base<unsigned int, std::allocator<unsigned int>>::_Vector_impl_data" = type { ptr, ptr, ptr }
%"class.std::vector.10" = type { %"struct.std::_Vector_base.11" }
%"struct.std::_Vector_base.11" = type { %"struct.std::_Vector_base<unsigned char, std::allocator<unsigned char>>::_Vector_impl" }
%"struct.std::_Vector_base<unsigned char, std::allocator<unsigned char>>::_Vector_impl" = type { %"struct.std::_Vector_base<unsigned char, std::allocator<unsigned char>>::_Vector_impl_data" }
%"struct.std::_Vector_base<unsigned char, std::allocator<unsigned char>>::_Vector_impl_data" = type { ptr, ptr, ptr }
%"class.logging::LogMessage" = type <{ i32, [4 x i8], %"class.std::__cxx11::basic_ostringstream", i64, ptr, i32, [4 x i8] }>
%"class.std::__cxx11::basic_ostringstream" = type { %"class.std::basic_ostream.base", %"class.std::__cxx11::basic_stringbuf", %"class.std::basic_ios" }
%"class.std::basic_ostream.base" = type { ptr }
%"class.std::__cxx11::basic_stringbuf" = type { %"class.std::basic_streambuf", i32, %"class.std::__cxx11::basic_string" }
%"class.std::basic_streambuf" = type { ptr, ptr, ptr, ptr, ptr, ptr, ptr, %"class.std::locale" }
%"class.std::locale" = type { ptr }
%"class.std::__cxx11::basic_string" = type { %"struct.std::__cxx11::basic_string<char>::_Alloc_hider", i64, %union.anon }
%"struct.std::__cxx11::basic_string<char>::_Alloc_hider" = type { ptr }
%union.anon = type { i64, [8 x i8] }
%"class.std::basic_ios" = type { %"class.std::ios_base", ptr, i8, i8, ptr, ptr, ptr, ptr }
%"class.std::ios_base" = type { ptr, i64, i64, i32, i32, i32, ptr, %"struct.std::ios_base::_Words", [8 x %"struct.std::ios_base::_Words"], i32, ptr, %"class.std::locale" }
%"struct.std::ios_base::_Words" = type { ptr, i64 }
%"class.logging::CheckOpResult" = type { ptr }

@.str = private unnamed_addr constant [135 x i8] c"generated/home/dtcxzyw/WorkSpace/Projects/compilers/llvm-opt-benchmark/bench/libquic/libquic/src/net/spdy/hpack/hpack_huffman_table.cc\00", align 1
@.str.3 = private unnamed_addr constant [21 x i8] c"index < table.size()\00", align 1
@.str.9 = private unnamed_addr constant [54 x i8] c"table.entries_offset + index < decode_entries_.size()\00", align 1

; Function Attrs: mustprogress nounwind uwtable
define linkonce_odr noundef nonnull align 2 dereferenceable(4) ptr @_ZNSt6vectorIN3net17HpackHuffmanTable11DecodeEntryESaIS2_EEixEm(ptr noundef nonnull align 8 dereferenceable(24) %0, i64 noundef %1) #0 comdat align 2 {
  %3 = alloca ptr, align 8
  %4 = alloca i64, align 8
  store ptr %0, ptr %3, align 8, !tbaa !24
  store i64 %1, ptr %4, align 8, !tbaa !46
  %5 = load ptr, ptr %3, align 8
  %6 = getelementptr inbounds nuw %"struct.std::_Vector_base.1", ptr %5, i32 0, i32 0
  %7 = getelementptr inbounds nuw %"struct.std::_Vector_base<net::HpackHuffmanTable::DecodeEntry, std::allocator<net::HpackHuffmanTable::DecodeEntry>>::_Vector_impl_data", ptr %6, i32 0, i32 0
  %8 = load ptr, ptr %7, align 8, !tbaa !38
  %9 = load i64, ptr %4, align 8, !tbaa !46
  %10 = getelementptr inbounds nuw %"struct.net::HpackHuffmanTable::DecodeEntry", ptr %8, i64 %9
  ret ptr %10
}

; Function Attrs: inlinehint mustprogress uwtable
define linkonce_odr noundef ptr @_ZN7logging11CheckLTImplImmEEPNSt7__cxx1112basic_stringIcSt11char_traitsIcESaIcEEERKT_RKT0_PKc(ptr noundef nonnull align 8 dereferenceable(8) %0, ptr noundef nonnull align 8 dereferenceable(8) %1, ptr noundef %2) #6 comdat {
  %4 = alloca ptr, align 8
  %5 = alloca ptr, align 8
  %6 = alloca ptr, align 8
  %7 = alloca ptr, align 8
  store ptr %0, ptr %5, align 8, !tbaa !96
  store ptr %1, ptr %6, align 8, !tbaa !96
  store ptr %2, ptr %7, align 8, !tbaa !100
  %8 = load ptr, ptr %5, align 8, !tbaa !96
  %9 = load i64, ptr %8, align 8, !tbaa !46
  %10 = load ptr, ptr %6, align 8, !tbaa !96
  %11 = load i64, ptr %10, align 8, !tbaa !46
  %12 = icmp ult i64 %9, %11
  br i1 %12, label %13, label %14

13:                                               ; preds = %3
  store ptr null, ptr %4, align 8
  br label %19

14:                                               ; preds = %3
  %15 = load ptr, ptr %5, align 8, !tbaa !96
  %16 = load ptr, ptr %6, align 8, !tbaa !96
  %17 = load ptr, ptr %7, align 8, !tbaa !100
  %18 = call noundef ptr @_ZN7logging17MakeCheckOpStringImmEEPNSt7__cxx1112basic_stringIcSt11char_traitsIcESaIcEEERKT_RKT0_PKc(ptr noundef nonnull align 8 dereferenceable(8) %15, ptr noundef nonnull align 8 dereferenceable(8) %16, ptr noundef %17)
  store ptr %18, ptr %4, align 8
  br label %19

19:                                               ; preds = %14, %13
  %20 = load ptr, ptr %4, align 8
  ret ptr %20
}

; Function Attrs: mustprogress nounwind uwtable
define linkonce_odr noundef i64 @_ZNKSt6vectorIN3net17HpackHuffmanTable11DecodeEntryESaIS2_EE4sizeEv(ptr noundef nonnull align 8 dereferenceable(24) %0) #0 comdat align 2 {
  %2 = alloca ptr, align 8
  store ptr %0, ptr %2, align 8, !tbaa !24
  %3 = load ptr, ptr %2, align 8
  %4 = getelementptr inbounds nuw %"struct.std::_Vector_base.1", ptr %3, i32 0, i32 0
  %5 = getelementptr inbounds nuw %"struct.std::_Vector_base<net::HpackHuffmanTable::DecodeEntry, std::allocator<net::HpackHuffmanTable::DecodeEntry>>::_Vector_impl_data", ptr %4, i32 0, i32 1
  %6 = load ptr, ptr %5, align 8, !tbaa !40
  %7 = getelementptr inbounds nuw %"struct.std::_Vector_base.1", ptr %3, i32 0, i32 0
  %8 = getelementptr inbounds nuw %"struct.std::_Vector_base<net::HpackHuffmanTable::DecodeEntry, std::allocator<net::HpackHuffmanTable::DecodeEntry>>::_Vector_impl_data", ptr %7, i32 0, i32 0
  %9 = load ptr, ptr %8, align 8, !tbaa !38
  %10 = ptrtoint ptr %6 to i64
  %11 = ptrtoint ptr %9 to i64
  %12 = sub i64 %10, %11
  %13 = sdiv exact i64 %12, 4
  ret i64 %13
}

; Function Attrs: mustprogress nounwind uwtable
define linkonce_odr noundef nonnull align 8 dereferenceable(8) ptr @_ZN7logging10LogMessage6streamEv(ptr noundef nonnull align 8 dereferenceable(404) %0) #0 comdat align 2 {
  %2 = alloca ptr, align 8
  store ptr %0, ptr %2, align 8, !tbaa !76
  %3 = load ptr, ptr %2, align 8
  %4 = getelementptr inbounds nuw %"class.logging::LogMessage", ptr %3, i32 0, i32 2
  ret ptr %4
}

; Function Attrs: mustprogress nounwind uwtable
define linkonce_odr noundef ptr @_ZN7logging13CheckOpResult7messageB5cxx11Ev(ptr noundef nonnull align 8 dereferenceable(8) %0) #0 comdat align 2 {
  %2 = alloca ptr, align 8
  store ptr %0, ptr %2, align 8, !tbaa !101
  %3 = load ptr, ptr %2, align 8
  %4 = getelementptr inbounds nuw %"class.logging::CheckOpResult", ptr %3, i32 0, i32 0
  %5 = load ptr, ptr %4, align 8, !tbaa !105
  ret ptr %5
}

; Function Attrs: mustprogress nounwind uwtable
define linkonce_odr noundef zeroext i1 @_ZNK7logging13CheckOpResultcvbEv(ptr noundef nonnull align 8 dereferenceable(8) %0) #0 comdat align 2 {
  %2 = alloca ptr, align 8
  store ptr %0, ptr %2, align 8, !tbaa !101
  %3 = load ptr, ptr %2, align 8
  %4 = getelementptr inbounds nuw %"class.logging::CheckOpResult", ptr %3, i32 0, i32 0
  %5 = load ptr, ptr %4, align 8, !tbaa !105
  %6 = icmp ne ptr %5, null
  %7 = xor i1 %6, true
  ret i1 %7
}

; Function Attrs: mustprogress nounwind uwtable
define linkonce_odr void @_ZN7logging13CheckOpResultC2EPNSt7__cxx1112basic_stringIcSt11char_traitsIcESaIcEEE(ptr noundef nonnull align 8 dereferenceable(8) %0, ptr noundef %1) unnamed_addr #0 comdat align 2 {
  %3 = alloca ptr, align 8
  %4 = alloca ptr, align 8
  store ptr %0, ptr %3, align 8, !tbaa !101
  store ptr %1, ptr %4, align 8, !tbaa !103
  %5 = load ptr, ptr %3, align 8
  %6 = getelementptr inbounds nuw %"class.logging::CheckOpResult", ptr %5, i32 0, i32 0
  %7 = load ptr, ptr %4, align 8, !tbaa !103
  store ptr %7, ptr %6, align 8, !tbaa !105
  ret void
}

; Function Attrs: inlinehint mustprogress uwtable
define linkonce_odr noundef ptr @_ZN7logging11CheckLTImplIjmEEPNSt7__cxx1112basic_stringIcSt11char_traitsIcESaIcEEERKT_RKT0_PKc(ptr noundef nonnull align 4 dereferenceable(4) %0, ptr noundef nonnull align 8 dereferenceable(8) %1, ptr noundef %2) #6 comdat {
  %4 = alloca ptr, align 8
  %5 = alloca ptr, align 8
  %6 = alloca ptr, align 8
  %7 = alloca ptr, align 8
  store ptr %0, ptr %5, align 8, !tbaa !107
  store ptr %1, ptr %6, align 8, !tbaa !96
  store ptr %2, ptr %7, align 8, !tbaa !100
  %8 = load ptr, ptr %5, align 8, !tbaa !107
  %9 = load i32, ptr %8, align 4, !tbaa !65
  %10 = zext i32 %9 to i64
  %11 = load ptr, ptr %6, align 8, !tbaa !96
  %12 = load i64, ptr %11, align 8, !tbaa !46
  %13 = icmp ult i64 %10, %12
  br i1 %13, label %14, label %15

14:                                               ; preds = %3
  store ptr null, ptr %4, align 8
  br label %20

15:                                               ; preds = %3
  %16 = load ptr, ptr %5, align 8, !tbaa !107
  %17 = load ptr, ptr %6, align 8, !tbaa !96
  %18 = load ptr, ptr %7, align 8, !tbaa !100
  %19 = call noundef ptr @_ZN7logging17MakeCheckOpStringIjmEEPNSt7__cxx1112basic_stringIcSt11char_traitsIcESaIcEEERKT_RKT0_PKc(ptr noundef nonnull align 4 dereferenceable(4) %16, ptr noundef nonnull align 8 dereferenceable(8) %17, ptr noundef %18)
  store ptr %19, ptr %4, align 8
  br label %20

20:                                               ; preds = %15, %14
  %21 = load ptr, ptr %4, align 8
  ret ptr %21
}

; Function Attrs: mustprogress nounwind uwtable
define noundef i64 @_ZNK3net17HpackHuffmanTable11DecodeTable4sizeEv(ptr noundef nonnull align 8 dereferenceable(16) %0) #0 align 2 {
  %2 = alloca ptr, align 8
  store ptr %0, ptr %2, align 8, !tbaa !15
  %3 = load ptr, ptr %2, align 8
  %4 = getelementptr inbounds nuw %"struct.net::HpackHuffmanTable::DecodeTable", ptr %3, i32 0, i32 1
  %5 = load i8, ptr %4, align 1, !tbaa !17
  %6 = zext i8 %5 to i32
  %7 = zext i32 %6 to i64
  %8 = shl i64 1, %7
  ret i64 %8
}

; Function Attrs: mustprogress uwtable
define void @_ZN3net17HpackHuffmanTable8SetEntryERKNS0_11DecodeTableEjRKNS0_11DecodeEntryE(ptr noundef nonnull align 8 dereferenceable(100) %0, ptr noundef nonnull align 8 dereferenceable(16) %1, i32 noundef %2, ptr noundef nonnull align 2 dereferenceable(4) %3) #1 align 2 personality ptr @__gxx_personality_v0 {
  %5 = alloca ptr, align 8
  %6 = alloca ptr, align 8
  %7 = alloca i32, align 4
  %8 = alloca ptr, align 8
  %9 = alloca %"class.logging::CheckOpResult", align 8
  %10 = alloca i64, align 8
  %11 = alloca %"class.logging::LogMessage", align 8
  %12 = alloca ptr, align 8
  %13 = alloca i32, align 4
  %14 = alloca %"class.logging::CheckOpResult", align 8
  %15 = alloca i64, align 8
  %16 = alloca i64, align 8
  %17 = alloca %"class.logging::LogMessage", align 8
  store ptr %0, ptr %5, align 8, !tbaa !20
  store ptr %1, ptr %6, align 8, !tbaa !15
  store i32 %2, ptr %7, align 4, !tbaa !65
  store ptr %3, ptr %8, align 8, !tbaa !3
  %18 = load ptr, ptr %5, align 8
  call void @llvm.lifetime.start.p0(i64 8, ptr %9) #16
  call void @llvm.lifetime.start.p0(i64 8, ptr %10) #16
  %19 = load ptr, ptr %6, align 8, !tbaa !15
  %20 = call noundef i64 @_ZNK3net17HpackHuffmanTable11DecodeTable4sizeEv(ptr noundef nonnull align 8 dereferenceable(16) %19)
  store i64 %20, ptr %10, align 8, !tbaa !46
  %21 = call noundef ptr @_ZN7logging11CheckLTImplIjmEEPNSt7__cxx1112basic_stringIcSt11char_traitsIcESaIcEEERKT_RKT0_PKc(ptr noundef nonnull align 4 dereferenceable(4) %7, ptr noundef nonnull align 8 dereferenceable(8) %10, ptr noundef @.str.3)
  call void @_ZN7logging13CheckOpResultC2EPNSt7__cxx1112basic_stringIcSt11char_traitsIcESaIcEEE(ptr noundef nonnull align 8 dereferenceable(8) %9, ptr noundef %21)
  call void @llvm.lifetime.end.p0(i64 8, ptr %10) #16
  %22 = call noundef zeroext i1 @_ZNK7logging13CheckOpResultcvbEv(ptr noundef nonnull align 8 dereferenceable(8) %9)
  br i1 %22, label %23, label %24

23:                                               ; preds = %4
  br label %32

24:                                               ; preds = %4
  call void @llvm.lifetime.start.p0(i64 408, ptr %11) #16
  %25 = call noundef ptr @_ZN7logging13CheckOpResult7messageB5cxx11Ev(ptr noundef nonnull align 8 dereferenceable(8) %9)
  call void @_ZN7logging10LogMessageC1EPKciPNSt7__cxx1112basic_stringIcSt11char_traitsIcESaIcEEE(ptr noundef nonnull align 8 dereferenceable(404) %11, ptr noundef @.str, i32 noundef 212, ptr noundef %25)
  %26 = invoke noundef nonnull align 8 dereferenceable(8) ptr @_ZN7logging10LogMessage6streamEv(ptr noundef nonnull align 8 dereferenceable(404) %11)
          to label %27 unwind label %28

27:                                               ; preds = %24
  call void @_ZN7logging10LogMessageD1Ev(ptr noundef nonnull align 8 dereferenceable(404) %11) #16
  call void @llvm.lifetime.end.p0(i64 408, ptr %11) #16
  br label %32

28:                                               ; preds = %24
  %29 = landingpad { ptr, i32 }
          cleanup
  %30 = extractvalue { ptr, i32 } %29, 0
  store ptr %30, ptr %12, align 8
  %31 = extractvalue { ptr, i32 } %29, 1
  store i32 %31, ptr %13, align 4
  call void @_ZN7logging10LogMessageD1Ev(ptr noundef nonnull align 8 dereferenceable(404) %11) #16
  call void @llvm.lifetime.end.p0(i64 408, ptr %11) #16
  call void @llvm.lifetime.end.p0(i64 8, ptr %9) #16
  br label %62

32:                                               ; preds = %27, %23
  call void @llvm.lifetime.end.p0(i64 8, ptr %9) #16
  call void @llvm.lifetime.start.p0(i64 8, ptr %14) #16
  call void @llvm.lifetime.start.p0(i64 8, ptr %15) #16
  %33 = load ptr, ptr %6, align 8, !tbaa !15
  %34 = getelementptr inbounds nuw %"struct.net::HpackHuffmanTable::DecodeTable", ptr %33, i32 0, i32 2
  %35 = load i64, ptr %34, align 8, !tbaa !110
  %36 = load i32, ptr %7, align 4, !tbaa !65
  %37 = zext i32 %36 to i64
  %38 = add i64 %35, %37
  store i64 %38, ptr %15, align 8, !tbaa !46
  call void @llvm.lifetime.start.p0(i64 8, ptr %16) #16
  %39 = getelementptr inbounds nuw %"class.net::HpackHuffmanTable", ptr %18, i32 0, i32 1
  %40 = call noundef i64 @_ZNKSt6vectorIN3net17HpackHuffmanTable11DecodeEntryESaIS2_EE4sizeEv(ptr noundef nonnull align 8 dereferenceable(24) %39) #16
  store i64 %40, ptr %16, align 8, !tbaa !46
  %41 = call noundef ptr @_ZN7logging11CheckLTImplImmEEPNSt7__cxx1112basic_stringIcSt11char_traitsIcESaIcEEERKT_RKT0_PKc(ptr noundef nonnull align 8 dereferenceable(8) %15, ptr noundef nonnull align 8 dereferenceable(8) %16, ptr noundef @.str.9)
  call void @_ZN7logging13CheckOpResultC2EPNSt7__cxx1112basic_stringIcSt11char_traitsIcESaIcEEE(ptr noundef nonnull align 8 dereferenceable(8) %14, ptr noundef %41)
  call void @llvm.lifetime.end.p0(i64 8, ptr %16) #16
  call void @llvm.lifetime.end.p0(i64 8, ptr %15) #16
  %42 = call noundef zeroext i1 @_ZNK7logging13CheckOpResultcvbEv(ptr noundef nonnull align 8 dereferenceable(8) %14)
  br i1 %42, label %43, label %44

43:                                               ; preds = %32
  br label %52

44:                                               ; preds = %32
  call void @llvm.lifetime.start.p0(i64 408, ptr %17) #16
  %45 = call noundef ptr @_ZN7logging13CheckOpResult7messageB5cxx11Ev(ptr noundef nonnull align 8 dereferenceable(8) %14)
  call void @_ZN7logging10LogMessageC1EPKciPNSt7__cxx1112basic_stringIcSt11char_traitsIcESaIcEEE(ptr noundef nonnull align 8 dereferenceable(404) %17, ptr noundef @.str, i32 noundef 213, ptr noundef %45)
  %46 = invoke noundef nonnull align 8 dereferenceable(8) ptr @_ZN7logging10LogMessage6streamEv(ptr noundef nonnull align 8 dereferenceable(404) %17)
          to label %47 unwind label %48

47:                                               ; preds = %44
  call void @_ZN7logging10LogMessageD1Ev(ptr noundef nonnull align 8 dereferenceable(404) %17) #16
  call void @llvm.lifetime.end.p0(i64 408, ptr %17) #16
  br label %52

48:                                               ; preds = %44
  %49 = landingpad { ptr, i32 }
          cleanup
  %50 = extractvalue { ptr, i32 } %49, 0
  store ptr %50, ptr %12, align 8
  %51 = extractvalue { ptr, i32 } %49, 1
  store i32 %51, ptr %13, align 4
  call void @_ZN7logging10LogMessageD1Ev(ptr noundef nonnull align 8 dereferenceable(404) %17) #16
  call void @llvm.lifetime.end.p0(i64 408, ptr %17) #16
  call void @llvm.lifetime.end.p0(i64 8, ptr %14) #16
  br label %62

52:                                               ; preds = %47, %43
  call void @llvm.lifetime.end.p0(i64 8, ptr %14) #16
  %53 = load ptr, ptr %8, align 8, !tbaa !3
  %54 = getelementptr inbounds nuw %"class.net::HpackHuffmanTable", ptr %18, i32 0, i32 1
  %55 = load ptr, ptr %6, align 8, !tbaa !15
  %56 = getelementptr inbounds nuw %"struct.net::HpackHuffmanTable::DecodeTable", ptr %55, i32 0, i32 2
  %57 = load i64, ptr %56, align 8, !tbaa !110
  %58 = load i32, ptr %7, align 4, !tbaa !65
  %59 = zext i32 %58 to i64
  %60 = add i64 %57, %59
  %61 = call noundef nonnull align 2 dereferenceable(4) ptr @_ZNSt6vectorIN3net17HpackHuffmanTable11DecodeEntryESaIS2_EEixEm(ptr noundef nonnull align 8 dereferenceable(24) %54, i64 noundef %60) #16
  call void @llvm.memcpy.p0.p0.i64(ptr align 2 %61, ptr align 2 %53, i64 4, i1 false), !tbaa.struct !89
  ret void

62:                                               ; preds = %48, %28
  %63 = load ptr, ptr %12, align 8
  %64 = load i32, ptr %13, align 4
  %65 = insertvalue { ptr, i32 } poison, ptr %63, 0
  %66 = insertvalue { ptr, i32 } %65, i32 %64, 1
  resume { ptr, i32 } %66
}