; Function Attrs: mustprogress uwtable
define void @_ZN3net17HpackHuffmanTable8SetEntryERKNS0_11DecodeTableEjRKNS0_11DecodeEntryE(ptr noundef nonnull readonly align 8 captures(none) dereferenceable(100) %0, ptr noundef nonnull readonly align 8 captures(none) dereferenceable(16) %1, i32 noundef %2, ptr noundef nonnull readonly align 2 captures(none) dereferenceable(4) %3) local_unnamed_addr #3 align 2 personality ptr @__gxx_personality_v0 {
  %5 = alloca i32, align 4
  %6 = alloca i64, align 8
  %7 = alloca %"class.logging::LogMessage", align 8
  %8 = alloca i64, align 8
  %9 = alloca i64, align 8
  %10 = alloca %"class.logging::LogMessage", align 8
  store i32 %2, ptr %5, align 4, !tbaa !69
  call void @llvm.lifetime.start.p0(i64 8, ptr nonnull %6) #20
  %11 = getelementptr inbounds nuw i8, ptr %1, i64 1
  %12 = load i8, ptr %11, align 1, !tbaa !10
  %13 = zext nneg i8 %12 to i64
  %14 = shl nuw i64 1, %13
  store i64 %14, ptr %6, align 8, !tbaa !68
  %15 = zext i32 %2 to i64
  %16 = icmp ugt i64 %14, %15
  br i1 %16, label %_ZN7logging11CheckLTImplIjmEEPNSt7__cxx1112basic_stringIcSt11char_traitsIcESaIcEEERKT_RKT0_PKc.exit.thread, label %_ZN7logging11CheckLTImplIjmEEPNSt7__cxx1112basic_stringIcSt11char_traitsIcESaIcEEERKT_RKT0_PKc.exit

_ZN7logging11CheckLTImplIjmEEPNSt7__cxx1112basic_stringIcSt11char_traitsIcESaIcEEERKT_RKT0_PKc.exit.thread: ; preds = %4
  call void @llvm.lifetime.end.p0(i64 8, ptr nonnull %6) #20
  br label %19

_ZN7logging11CheckLTImplIjmEEPNSt7__cxx1112basic_stringIcSt11char_traitsIcESaIcEEERKT_RKT0_PKc.exit: ; preds = %4
  %17 = call noundef ptr @_ZN7logging17MakeCheckOpStringIjmEEPNSt7__cxx1112basic_stringIcSt11char_traitsIcESaIcEEERKT_RKT0_PKc(ptr noundef nonnull align 4 dereferenceable(4) %5, ptr noundef nonnull align 8 dereferenceable(8) %6, ptr noundef nonnull @.str.3)
  call void @llvm.lifetime.end.p0(i64 8, ptr nonnull %6) #20
  %.not.i = icmp eq ptr %17, null
  br i1 %.not.i, label %19, label %18

18:                                               ; preds = %_ZN7logging11CheckLTImplIjmEEPNSt7__cxx1112basic_stringIcSt11char_traitsIcESaIcEEERKT_RKT0_PKc.exit
  call void @llvm.lifetime.start.p0(i64 408, ptr nonnull %7) #20
  call void @_ZN7logging10LogMessageC1EPKciPNSt7__cxx1112basic_stringIcSt11char_traitsIcESaIcEEE(ptr noundef nonnull align 8 dereferenceable(404) %7, ptr noundef nonnull @.str, i32 noundef 212, ptr noundef nonnull %17)
  call void @_ZN7logging10LogMessageD1Ev(ptr noundef nonnull align 8 dereferenceable(404) %7) #20
  call void @llvm.lifetime.end.p0(i64 408, ptr nonnull %7) #20
  br label %19

19:                                               ; preds = %_ZN7logging11CheckLTImplIjmEEPNSt7__cxx1112basic_stringIcSt11char_traitsIcESaIcEEERKT_RKT0_PKc.exit.thread, %_ZN7logging11CheckLTImplIjmEEPNSt7__cxx1112basic_stringIcSt11char_traitsIcESaIcEEERKT_RKT0_PKc.exit, %18
  call void @llvm.lifetime.start.p0(i64 8, ptr nonnull %8) #20
  %20 = getelementptr inbounds nuw i8, ptr %1, i64 8
  %21 = load i64, ptr %20, align 8, !tbaa !73
  %22 = load i32, ptr %5, align 4, !tbaa !69
  %23 = zext i32 %22 to i64
  %24 = add i64 %21, %23
  store i64 %24, ptr %8, align 8, !tbaa !68
  call void @llvm.lifetime.start.p0(i64 8, ptr nonnull %9) #20
  %25 = getelementptr inbounds nuw i8, ptr %0, i64 24
  %26 = getelementptr inbounds nuw i8, ptr %0, i64 32
  %27 = load ptr, ptr %26, align 8, !tbaa !70
  %28 = load ptr, ptr %25, align 8, !tbaa !20
  %29 = ptrtoint ptr %27 to i64
  %30 = ptrtoint ptr %28 to i64
  %31 = sub i64 %29, %30
  %32 = ashr exact i64 %31, 2
  store i64 %32, ptr %9, align 8, !tbaa !68
  %33 = icmp ult i64 %24, %32
  br i1 %33, label %_ZN7logging11CheckLTImplImmEEPNSt7__cxx1112basic_stringIcSt11char_traitsIcESaIcEEERKT_RKT0_PKc.exit.thread, label %_ZN7logging11CheckLTImplImmEEPNSt7__cxx1112basic_stringIcSt11char_traitsIcESaIcEEERKT_RKT0_PKc.exit

_ZN7logging11CheckLTImplImmEEPNSt7__cxx1112basic_stringIcSt11char_traitsIcESaIcEEERKT_RKT0_PKc.exit.thread: ; preds = %19
  call void @llvm.lifetime.end.p0(i64 8, ptr nonnull %9) #20
  call void @llvm.lifetime.end.p0(i64 8, ptr nonnull %8) #20
  br label %36

_ZN7logging11CheckLTImplImmEEPNSt7__cxx1112basic_stringIcSt11char_traitsIcESaIcEEERKT_RKT0_PKc.exit: ; preds = %19
  %34 = call noundef ptr @_ZN7logging17MakeCheckOpStringImmEEPNSt7__cxx1112basic_stringIcSt11char_traitsIcESaIcEEERKT_RKT0_PKc(ptr noundef nonnull align 8 dereferenceable(8) %8, ptr noundef nonnull align 8 dereferenceable(8) %9, ptr noundef nonnull @.str.9)
  call void @llvm.lifetime.end.p0(i64 8, ptr nonnull %9) #20
  call void @llvm.lifetime.end.p0(i64 8, ptr nonnull %8) #20
  %.not.i6 = icmp eq ptr %34, null
  br i1 %.not.i6, label %36, label %35

35:                                               ; preds = %_ZN7logging11CheckLTImplImmEEPNSt7__cxx1112basic_stringIcSt11char_traitsIcESaIcEEERKT_RKT0_PKc.exit
  call void @llvm.lifetime.start.p0(i64 408, ptr nonnull %10) #20
  call void @_ZN7logging10LogMessageC1EPKciPNSt7__cxx1112basic_stringIcSt11char_traitsIcESaIcEEE(ptr noundef nonnull align 8 dereferenceable(404) %10, ptr noundef nonnull @.str, i32 noundef 213, ptr noundef nonnull %34)
  call void @_ZN7logging10LogMessageD1Ev(ptr noundef nonnull align 8 dereferenceable(404) %10) #20
  call void @llvm.lifetime.end.p0(i64 408, ptr nonnull %10) #20
  br label %36

36:                                               ; preds = %_ZN7logging11CheckLTImplImmEEPNSt7__cxx1112basic_stringIcSt11char_traitsIcESaIcEEERKT_RKT0_PKc.exit.thread, %_ZN7logging11CheckLTImplImmEEPNSt7__cxx1112basic_stringIcSt11char_traitsIcESaIcEEERKT_RKT0_PKc.exit, %35
  %37 = load i64, ptr %20, align 8, !tbaa !73
  %38 = load i32, ptr %5, align 4, !tbaa !69
  %39 = zext i32 %38 to i64
  %40 = load ptr, ptr %25, align 8, !tbaa !20
  %41 = getelementptr %"struct.net::HpackHuffmanTable::DecodeEntry", ptr %40, i64 %37
  %42 = getelementptr %"struct.net::HpackHuffmanTable::DecodeEntry", ptr %41, i64 %39
  %43 = load i32, ptr %3, align 2
  store i32 %43, ptr %42, align 2
  ret void
}